; Function Attrs: mustprogress uwtable
define hidden noundef zeroext i1 @_ZN4cvc58internal6theory11quantifiers4inst18CandidateGenerator16isLegalCandidateENS0_12NodeTemplateILb1EEE(ptr nocapture noundef nonnull readonly align 8 dereferenceable(32) %this, ptr nocapture noundef readonly %n) local_unnamed_addr #3 align 2 personality ptr @__gxx_personality_v0 {
entry:
  %agg.tmp = alloca %"class.cvc5::internal::NodeTemplate", align 8
  %agg.tmp3 = alloca %"class.cvc5::internal::NodeTemplate", align 8
  %d_treg = getelementptr inbounds i8, ptr %this, i64 24
  %0 = load ptr, ptr %d_treg, align 8
  %call = tail call noundef ptr @_ZNK4cvc58internal6theory11quantifiers12TermRegistry15getTermDatabaseEv(ptr noundef nonnull align 8 dereferenceable(208) %0)
  %1 = load ptr, ptr %n, align 8
  store ptr %1, ptr %agg.tmp, align 8
  %bf.load.i.i = load i64, ptr %1, align 8
  %bf.lshr.i.i = lshr i64 %bf.load.i.i, 40
  %2 = trunc i64 %bf.lshr.i.i to i32
  %bf.cast.i.i = and i32 %2, 1048575
  %cmp.i.i = icmp ult i32 %bf.cast.i.i, 1048574
  br i1 %cmp.i.i, label %if.then.i.i, label %if.else.i.i

if.then.i.i:                                      ; preds = %entry
  %bf.value.i.i = add i64 %bf.load.i.i, 1099511627776
  %bf.shl.i.i = and i64 %bf.value.i.i, 1152920405095219200
  %bf.clear7.i.i = and i64 %bf.load.i.i, -1152920405095219201
  %bf.set.i.i = or disjoint i64 %bf.shl.i.i, %bf.clear7.i.i
  store i64 %bf.set.i.i, ptr %1, align 8
  br label %_ZN4cvc58internal12NodeTemplateILb1EEC2ERKS2_.exit

if.else.i.i:                                      ; preds = %entry
  %cmp12.i.i = icmp eq i32 %bf.cast.i.i, 1048574
  br i1 %cmp12.i.i, label %if.then13.i.i, label %_ZN4cvc58internal12NodeTemplateILb1EEC2ERKS2_.exit

if.then13.i.i:                                    ; preds = %if.else.i.i
  %bf.set23.i.i = or i64 %bf.load.i.i, 1152920405095219200
  store i64 %bf.set23.i.i, ptr %1, align 8
  tail call void @_ZN4cvc58internal4expr9NodeValue20markRefCountMaxedOutEv(ptr noundef nonnull align 8 dereferenceable(16) %1)
  br label %_ZN4cvc58internal12NodeTemplateILb1EEC2ERKS2_.exit

_ZN4cvc58internal12NodeTemplateILb1EEC2ERKS2_.exit: ; preds = %if.then.i.i, %if.else.i.i, %if.then13.i.i
  %call2 = invoke noundef zeroext i1 @_ZN4cvc58internal6theory11quantifiers6TermDb12isTermActiveENS0_12NodeTemplateILb1EEE(ptr noundef nonnull align 8 dereferenceable(1072) %call, ptr noundef nonnull %agg.tmp)
          to label %invoke.cont unwind label %lpad

invoke.cont:                                      ; preds = %_ZN4cvc58internal12NodeTemplateILb1EEC2ERKS2_.exit
  br i1 %call2, label %land.rhs, label %cleanup.done

land.rhs:                                         ; preds = %invoke.cont
  %3 = load ptr, ptr %n, align 8
  store ptr %3, ptr %agg.tmp3, align 8
  %bf.load.i.i2 = load i64, ptr %3, align 8
  %bf.lshr.i.i3 = lshr i64 %bf.load.i.i2, 40
  %4 = trunc i64 %bf.lshr.i.i3 to i32
  %bf.cast.i.i4 = and i32 %4, 1048575
  %cmp.i.i5 = icmp ult i32 %bf.cast.i.i4, 1048574
  br i1 %cmp.i.i5, label %if.then.i.i10, label %if.else.i.i6

if.then.i.i10:                                    ; preds = %land.rhs
  %bf.value.i.i11 = add i64 %bf.load.i.i2, 1099511627776
  %bf.shl.i.i12 = and i64 %bf.value.i.i11, 1152920405095219200
  %bf.clear7.i.i13 = and i64 %bf.load.i.i2, -1152920405095219201
  %bf.set.i.i14 = or disjoint i64 %bf.shl.i.i12, %bf.clear7.i.i13
  store i64 %bf.set.i.i14, ptr %3, align 8
  br label %invoke.cont4

if.else.i.i6:                                     ; preds = %land.rhs
  %cmp12.i.i7 = icmp eq i32 %bf.cast.i.i4, 1048574
  br i1 %cmp12.i.i7, label %if.then13.i.i8, label %invoke.cont4

if.then13.i.i8:                                   ; preds = %if.else.i.i6
  %bf.set23.i.i9 = or i64 %bf.load.i.i2, 1152920405095219200
  store i64 %bf.set23.i.i9, ptr %3, align 8
  invoke void @_ZN4cvc58internal4expr9NodeValue20markRefCountMaxedOutEv(ptr noundef nonnull align 8 dereferenceable(16) %3)
          to label %invoke.cont4 unwind label %lpad

invoke.cont4:                                     ; preds = %if.else.i.i6, %if.then.i.i10, %if.then13.i.i8
  %call7 = invoke noundef zeroext i1 @_ZN4cvc58internal6theory11quantifiers8TermUtil16hasInstConstAttrENS0_12NodeTemplateILb1EEE(ptr noundef nonnull %agg.tmp3)
          to label %cleanup.action unwind label %lpad5

cleanup.action:                                   ; preds = %invoke.cont4
  %lnot = xor i1 %call7, true
  %5 = load ptr, ptr %agg.tmp3, align 8
  %bf.load.i.i16 = load i64, ptr %5, align 8
  %6 = and i64 %bf.load.i.i16, 1152920405095219200
  %cmp.not.i.i = icmp eq i64 %6, 1152920405095219200
  br i1 %cmp.not.i.i, label %cleanup.done, label %if.then.i.i17

if.then.i.i17:                                    ; preds = %cleanup.action
  %bf.value.i.i18 = add i64 %bf.load.i.i16, 1152920405095219200
  %bf.shl.i.i19 = and i64 %bf.value.i.i18, 1152920405095219200
  %bf.clear7.i.i20 = and i64 %bf.load.i.i16, -1152920405095219201
  %bf.set.i.i21 = or disjoint i64 %bf.shl.i.i19, %bf.clear7.i.i20
  store i64 %bf.set.i.i21, ptr %5, align 8
  %cmp12.i.i22 = icmp eq i64 %bf.shl.i.i19, 0
  br i1 %cmp12.i.i22, label %if.then13.i.i23, label %cleanup.done

if.then13.i.i23:                                  ; preds = %if.then.i.i17
  invoke void @_ZN4cvc58internal4expr9NodeValue15markForDeletionEv(ptr noundef nonnull align 8 dereferenceable(16) %5)
          to label %cleanup.done unwind label %terminate.lpad.i

terminate.lpad.i:                                 ; preds = %if.then13.i.i23
  %7 = landingpad { ptr, i32 }
          catch ptr null
  %8 = extractvalue { ptr, i32 } %7, 0
  call void @__clang_call_terminate(ptr %8) #14
  unreachable

cleanup.done:                                     ; preds = %if.then13.i.i23, %if.then.i.i17, %cleanup.action, %invoke.cont
  %9 = phi i1 [ false, %invoke.cont ], [ %lnot, %cleanup.action ], [ %lnot, %if.then.i.i17 ], [ %lnot, %if.then13.i.i23 ]
  %10 = load ptr, ptr %agg.tmp, align 8
  %bf.load.i.i24 = load i64, ptr %10, align 8
  %11 = and i64 %bf.load.i.i24, 1152920405095219200
  %cmp.not.i.i25 = icmp eq i64 %11, 1152920405095219200
  br i1 %cmp.not.i.i25, label %_ZN4cvc58internal12NodeTemplateILb1EED2Ev.exit34, label %if.then.i.i26

if.then.i.i26:                                    ; preds = %cleanup.done
  %bf.value.i.i27 = add i64 %bf.load.i.i24, 1152920405095219200
  %bf.shl.i.i28 = and i64 %bf.value.i.i27, 1152920405095219200
  %bf.clear7.i.i29 = and i64 %bf.load.i.i24, -1152920405095219201
  %bf.set.i.i30 = or disjoint i64 %bf.shl.i.i28, %bf.clear7.i.i29
  store i64 %bf.set.i.i30, ptr %10, align 8
  %cmp12.i.i31 = icmp eq i64 %bf.shl.i.i28, 0
  br i1 %cmp12.i.i31, label %if.then13.i.i32, label %_ZN4cvc58internal12NodeTemplateILb1EED2Ev.exit34

if.then13.i.i32:                                  ; preds = %if.then.i.i26
  invoke void @_ZN4cvc58internal4expr9NodeValue15markForDeletionEv(ptr noundef nonnull align 8 dereferenceable(16) %10)
          to label %_ZN4cvc58internal12NodeTemplateILb1EED2Ev.exit34 unwind label %terminate.lpad.i33

terminate.lpad.i33:                               ; preds = %if.then13.i.i32
  %12 = landingpad { ptr, i32 }
          catch ptr null
  %13 = extractvalue { ptr, i32 } %12, 0
  call void @__clang_call_terminate(ptr %13) #14
  unreachable

_ZN4cvc58internal12NodeTemplateILb1EED2Ev.exit34: ; preds = %cleanup.done, %if.then.i.i26, %if.then13.i.i32
  ret i1 %9

lpad:                                             ; preds = %if.then13.i.i8, %_ZN4cvc58internal12NodeTemplateILb1EEC2ERKS2_.exit
  %14 = landingpad { ptr, i32 }
          cleanup
  br label %ehcleanup

lpad5:                                            ; preds = %invoke.cont4
  %15 = landingpad { ptr, i32 }
          cleanup
  call void @_ZN4cvc58internal12NodeTemplateILb1EED2Ev(ptr noundef nonnull align 8 dereferenceable(8) %agg.tmp3) #15
  br label %ehcleanup

ehcleanup:                                        ; preds = %lpad5, %lpad
  %.pn = phi { ptr, i32 } [ %15, %lpad5 ], [ %14, %lpad ]
  call void @_ZN4cvc58internal12NodeTemplateILb1EED2Ev(ptr noundef nonnull align 8 dereferenceable(8) %agg.tmp) #15
  resume { ptr, i32 } %.pn
}